; Function Attrs: mustprogress nofree norecurse nosync nounwind willreturn memory(read, argmem: readwrite, inaccessiblemem: none) uwtable
define hidden void @_Py_Specialize_StoreSubscr(i64 %0, i64 %1, ptr noundef captures(none) %2) local_unnamed_addr #2 {
  %4 = inttoptr i64 %0 to ptr
  %5 = inttoptr i64 %1 to ptr
  %6 = getelementptr i8, ptr %4, i64 8
  %.val = load ptr, ptr %6, align 8, !tbaa !9
  %7 = icmp eq ptr %.val, @PyList_Type
  br i1 %7, label %8, label %50

8:                                                ; preds = %3
  %9 = getelementptr i8, ptr %5, i64 8
  %.val18 = load ptr, ptr %9, align 8, !tbaa !9
  %.not = icmp eq ptr %.val18, @PyLong_Type
  br i1 %.not, label %10, label %36

10:                                               ; preds = %8
  %11 = getelementptr i8, ptr %5, i64 16
  %.val19 = load i64, ptr %11, align 8, !tbaa !153
  %12 = and i64 %.val19, -5
  %13 = icmp ugt i64 %12, 8
  br i1 %13, label %22, label %14

14:                                               ; preds = %10
  %15 = getelementptr inbounds nuw i8, ptr %5, i64 24
  %16 = load i32, ptr %15, align 8, !tbaa !47
  %17 = zext i32 %16 to i64
  %18 = getelementptr i8, ptr %4, i64 16
  %.val20 = load i64, ptr %18, align 8, !tbaa !156
  %19 = icmp ugt i64 %.val20, %17
  br i1 %19, label %20, label %22

20:                                               ; preds = %14
  store i8 -34, ptr %2, align 2, !tbaa !4
  %21 = getelementptr i8, ptr %2, i64 2
  store i16 832, ptr %21, align 2, !tbaa !24
  br label %68

22:                                               ; preds = %14, %10
  %23 = load i8, ptr %2, align 2, !tbaa !4
  %24 = zext i8 %23 to i64
  %25 = getelementptr [256 x i8], ptr @_PyOpcode_Deopt, i64 0, i64 %24
  %26 = load i8, ptr %25, align 1, !tbaa !4
  store i8 %26, ptr %2, align 2, !tbaa !4
  %27 = getelementptr i8, ptr %2, i64 2
  %.val.i = load i16, ptr %27, align 2, !tbaa !24
  %28 = and i16 %.val.i, 15
  %29 = icmp samesign ult i16 %28, 12
  br i1 %29, label %30, label %unspecialize.exit

30:                                               ; preds = %22
  %narrow.i.i.i = add nuw nsw i16 %28, 1
  %31 = zext nneg i16 %narrow.i.i.i to i32
  %notmask.i.i.i = shl nsw i32 -1, %31
  %32 = trunc i32 %notmask.i.i.i to i16
  %33 = xor i16 %32, -1
  %34 = shl nuw i16 %33, 4
  %35 = or i16 %34, %narrow.i.i.i
  br label %unspecialize.exit

unspecialize.exit:                                ; preds = %22, %30
  %.sroa.03.0.i.i.i = phi i16 [ %35, %30 ], [ -4, %22 ]
  store i16 %.sroa.03.0.i.i.i, ptr %27, align 2, !tbaa !24
  br label %68

36:                                               ; preds = %8
  %37 = load i8, ptr %2, align 2, !tbaa !4
  %38 = zext i8 %37 to i64
  %39 = getelementptr [256 x i8], ptr @_PyOpcode_Deopt, i64 0, i64 %38
  %40 = load i8, ptr %39, align 1, !tbaa !4
  store i8 %40, ptr %2, align 2, !tbaa !4
  %41 = getelementptr i8, ptr %2, i64 2
  %.val.i21 = load i16, ptr %41, align 2, !tbaa !24
  %42 = and i16 %.val.i21, 15
  %43 = icmp samesign ult i16 %42, 12
  br i1 %43, label %44, label %unspecialize.exit25

44:                                               ; preds = %36
  %narrow.i.i.i23 = add nuw nsw i16 %42, 1
  %45 = zext nneg i16 %narrow.i.i.i23 to i32
  %notmask.i.i.i24 = shl nsw i32 -1, %45
  %46 = trunc i32 %notmask.i.i.i24 to i16
  %47 = xor i16 %46, -1
  %48 = shl nuw i16 %47, 4
  %49 = or i16 %48, %narrow.i.i.i23
  br label %unspecialize.exit25

unspecialize.exit25:                              ; preds = %36, %44
  %.sroa.03.0.i.i.i22 = phi i16 [ %49, %44 ], [ -4, %36 ]
  store i16 %.sroa.03.0.i.i.i22, ptr %41, align 2, !tbaa !24
  br label %68

50:                                               ; preds = %3
  %51 = icmp eq ptr %.val, @PyDict_Type
  br i1 %51, label %52, label %54

52:                                               ; preds = %50
  store i8 -35, ptr %2, align 2, !tbaa !4
  %53 = getelementptr i8, ptr %2, i64 2
  store i16 832, ptr %53, align 2, !tbaa !24
  br label %68

54:                                               ; preds = %50
  %55 = load i8, ptr %2, align 2, !tbaa !4
  %56 = zext i8 %55 to i64
  %57 = getelementptr [256 x i8], ptr @_PyOpcode_Deopt, i64 0, i64 %56
  %58 = load i8, ptr %57, align 1, !tbaa !4
  store i8 %58, ptr %2, align 2, !tbaa !4
  %59 = getelementptr i8, ptr %2, i64 2
  %.val.i26 = load i16, ptr %59, align 2, !tbaa !24
  %60 = and i16 %.val.i26, 15
  %61 = icmp samesign ult i16 %60, 12
  br i1 %61, label %62, label %unspecialize.exit30

62:                                               ; preds = %54
  %narrow.i.i.i28 = add nuw nsw i16 %60, 1
  %63 = zext nneg i16 %narrow.i.i.i28 to i32
  %notmask.i.i.i29 = shl nsw i32 -1, %63
  %64 = trunc i32 %notmask.i.i.i29 to i16
  %65 = xor i16 %64, -1
  %66 = shl nuw i16 %65, 4
  %67 = or i16 %66, %narrow.i.i.i28
  br label %unspecialize.exit30

unspecialize.exit30:                              ; preds = %54, %62
  %.sroa.03.0.i.i.i27 = phi i16 [ %67, %62 ], [ -4, %54 ]
  store i16 %.sroa.03.0.i.i.i27, ptr %59, align 2, !tbaa !24
  br label %68

68:                                               ; preds = %unspecialize.exit25, %unspecialize.exit30, %52, %unspecialize.exit, %20
  ret void
}